; Function Attrs: mustprogress uwtable
define noundef range(i64 -64, 1) i64 @_ZN11duckdb_zstd19ZSTD_DCtx_refPrefixEPNS_11ZSTD_DCtx_sEPKvm(ptr noundef captures(none) %0, ptr noundef %1, i64 noundef %2) local_unnamed_addr #0 {
  %4 = getelementptr inbounds nuw i8, ptr %0, i64 30236
  %5 = load i32, ptr %4, align 4, !tbaa !129
  %.not.i.i = icmp eq i32 %5, 0
  br i1 %.not.i.i, label %6, label %_ZN11duckdb_zstd28ZSTD_DCtx_refPrefix_advancedEPNS_11ZSTD_DCtx_sEPKvmNS_22ZSTD_dictContentType_eE.exit

6:                                                ; preds = %3
  %7 = getelementptr inbounds nuw i8, ptr %0, i64 30184
  %8 = load ptr, ptr %7, align 8, !tbaa !3
  %9 = tail call noundef i64 @_ZN11duckdb_zstd14ZSTD_freeDDictEPNS_12ZSTD_DDict_sE(ptr noundef %8)
  %10 = getelementptr inbounds nuw i8, ptr %0, i64 30208
  store i32 0, ptr %10, align 8, !tbaa !33
  tail call void @llvm.memset.p0.i64(ptr noundef nonnull align 8 dereferenceable(16) %7, i8 0, i64 16, i1 false)
  %11 = icmp ne ptr %1, null
  %12 = icmp ne i64 %2, 0
  %or.cond.i.i = and i1 %11, %12
  br i1 %or.cond.i.i, label %13, label %19

13:                                               ; preds = %6
  %14 = getelementptr inbounds nuw i8, ptr %0, i64 30128
  %15 = tail call noundef ptr @_ZN11duckdb_zstd25ZSTD_createDDict_advancedEPKvmNS_21ZSTD_dictLoadMethod_eENS_22ZSTD_dictContentType_eENS_14ZSTD_customMemE(ptr noundef nonnull %1, i64 noundef %2, i32 noundef 1, i32 noundef 1, ptr noundef nonnull byval(%"struct.duckdb_zstd::ZSTD_customMem") align 8 %14)
  store ptr %15, ptr %7, align 8, !tbaa !3
  %16 = icmp eq ptr %15, null
  br i1 %16, label %_ZN11duckdb_zstd28ZSTD_DCtx_refPrefix_advancedEPNS_11ZSTD_DCtx_sEPKvmNS_22ZSTD_dictContentType_eE.exit, label %17

17:                                               ; preds = %13
  %18 = getelementptr inbounds nuw i8, ptr %0, i64 30192
  store ptr %15, ptr %18, align 8, !tbaa !111
  br label %19

19:                                               ; preds = %17, %6
  store i32 1, ptr %10, align 8, !tbaa !33
  br label %_ZN11duckdb_zstd28ZSTD_DCtx_refPrefix_advancedEPNS_11ZSTD_DCtx_sEPKvmNS_22ZSTD_dictContentType_eE.exit

_ZN11duckdb_zstd28ZSTD_DCtx_refPrefix_advancedEPNS_11ZSTD_DCtx_sEPKvmNS_22ZSTD_dictContentType_eE.exit: ; preds = %3, %13, %19
  %.1.i = phi i64 [ 0, %19 ], [ -60, %3 ], [ -64, %13 ]
  ret i64 %.1.i
}